; Function Attrs: mustprogress uwtable
define hidden void @_ZN5osgeo4proj5datum15ParametricDatumC2Ev(ptr noundef nonnull align 8 dereferenceable(72) %0) unnamed_addr #0 align 2 personality ptr @__gxx_personality_v0 {
  tail call void @_ZN5osgeo4proj6common11ObjectUsageC2Ev(ptr noundef nonnull align 8 dereferenceable(48) %0)
  %2 = getelementptr inbounds i8, ptr %0, i64 48
  store ptr getelementptr inbounds inrange(-16, 32) ({ [6 x ptr], [5 x ptr], [5 x ptr], [5 x ptr] }, ptr @_ZTVN5osgeo4proj5datum5DatumE, i64 0, i32 0, i64 2), ptr %0, align 8
  %3 = getelementptr inbounds i8, ptr %0, i64 16
  store ptr getelementptr inbounds inrange(-16, 24) ({ [6 x ptr], [5 x ptr], [5 x ptr], [5 x ptr] }, ptr @_ZTVN5osgeo4proj5datum5DatumE, i64 0, i32 1, i64 2), ptr %3, align 8
  %4 = getelementptr inbounds i8, ptr %0, i64 24
  store ptr getelementptr inbounds inrange(-16, 24) ({ [6 x ptr], [5 x ptr], [5 x ptr], [5 x ptr] }, ptr @_ZTVN5osgeo4proj5datum5DatumE, i64 0, i32 2, i64 2), ptr %4, align 8
  store ptr getelementptr inbounds inrange(-16, 24) ({ [6 x ptr], [5 x ptr], [5 x ptr], [5 x ptr] }, ptr @_ZTVN5osgeo4proj5datum5DatumE, i64 0, i32 3, i64 2), ptr %2, align 8
  tail call void @llvm.experimental.noalias.scope.decl(metadata !125)
  %5 = invoke noalias noundef nonnull dereferenceable(88) ptr @_Znwm(i64 noundef 88) #27
          to label %.noexc.i unwind label %8

.noexc.i:                                         ; preds = %1
  tail call void @llvm.memset.p0.i64(ptr noundef nonnull align 16 dereferenceable(88) %5, i8 0, i64 88, i1 false), !noalias !125
  invoke void @_ZN5osgeo4proj5datum5Datum7PrivateC2Ev(ptr noundef nonnull align 8 dereferenceable(88) %5)
          to label %_ZN5osgeo4proj5datum5DatumC2Ev.exit unwind label %6, !noalias !125

6:                                                ; preds = %.noexc.i
  %7 = landingpad { ptr, i32 }
          cleanup
  tail call void @_ZdlPv(ptr noundef nonnull %5) #28, !noalias !125
  br label %.body.i

8:                                                ; preds = %1
  %9 = landingpad { ptr, i32 }
          cleanup
  br label %.body.i

.body.i:                                          ; preds = %8, %6
  %eh.lpad-body.i = phi { ptr, i32 } [ %9, %8 ], [ %7, %6 ]
  tail call void @_ZN5osgeo4proj2io15IJSONExportableD2Ev(ptr noundef nonnull align 8 dereferenceable(8) %2) #26
  tail call void @_ZN5osgeo4proj6common11ObjectUsageD2Ev(ptr noundef nonnull align 8 dereferenceable(48) %0) #26
  resume { ptr, i32 } %eh.lpad-body.i

_ZN5osgeo4proj5datum5DatumC2Ev.exit:              ; preds = %.noexc.i
  %10 = getelementptr inbounds i8, ptr %0, i64 56
  store ptr %5, ptr %10, align 8, !alias.scope !125
  store ptr getelementptr inbounds inrange(-16, 48) ({ [8 x ptr], [5 x ptr], [5 x ptr], [5 x ptr] }, ptr @_ZTVN5osgeo4proj5datum15ParametricDatumE, i64 0, i32 0, i64 2), ptr %0, align 8
  store ptr getelementptr inbounds inrange(-16, 24) ({ [8 x ptr], [5 x ptr], [5 x ptr], [5 x ptr] }, ptr @_ZTVN5osgeo4proj5datum15ParametricDatumE, i64 0, i32 1, i64 2), ptr %3, align 8
  store ptr getelementptr inbounds inrange(-16, 24) ({ [8 x ptr], [5 x ptr], [5 x ptr], [5 x ptr] }, ptr @_ZTVN5osgeo4proj5datum15ParametricDatumE, i64 0, i32 2, i64 2), ptr %4, align 8
  store ptr getelementptr inbounds inrange(-16, 24) ({ [8 x ptr], [5 x ptr], [5 x ptr], [5 x ptr] }, ptr @_ZTVN5osgeo4proj5datum15ParametricDatumE, i64 0, i32 3, i64 2), ptr %2, align 8
  %11 = getelementptr inbounds i8, ptr %0, i64 64
  store ptr null, ptr %11, align 8
  ret void
}